; Function Attrs: mustprogress nounwind uwtable
define hidden noundef zeroext i1 @_ZN10RegionNode21is_unreachable_regionEPK8PhaseGVN(ptr noundef nonnull align 8 dereferenceable(60) %0, ptr nocapture noundef readonly %1) local_unnamed_addr #2 align 2 {
  %3 = getelementptr inbounds i8, ptr %0, i64 52
  %4 = load i8, ptr %3, align 4
  %5 = trunc i8 %4 to i1
  br i1 %5, label %_ZNK10RegionNode23is_possible_unsafe_loopEPK8PhaseGVN.exit.thread, label %6

6:                                                ; preds = %2
  %7 = getelementptr inbounds i8, ptr %0, i64 32
  %8 = load i32, ptr %7, align 8
  %.not27.i = icmp eq i32 %8, 0
  br i1 %.not27.i, label %_ZNK10RegionNode23is_possible_unsafe_loopEPK8PhaseGVN.exit.thread, label %.lr.ph.i

.lr.ph.i:                                         ; preds = %6
  %9 = getelementptr inbounds i8, ptr %0, i64 16
  %10 = zext i32 %8 to i64
  br label %11

11:                                               ; preds = %44, %.lr.ph.i
  %indvars.iv.i = phi i64 [ 0, %.lr.ph.i ], [ %indvars.iv.next.i, %44 ]
  %12 = phi i1 [ true, %.lr.ph.i ], [ %45, %44 ]
  %13 = load ptr, ptr %9, align 8
  %14 = getelementptr inbounds ptr, ptr %13, i64 %indvars.iv.i
  %15 = load ptr, ptr %14, align 8
  %.not.i = icmp eq ptr %15, null
  br i1 %.not.i, label %44, label %16

16:                                               ; preds = %11
  %17 = getelementptr inbounds i8, ptr %15, i64 44
  %18 = load i32, ptr %17, align 4
  %19 = and i32 %18, 15
  %20 = icmp eq i32 %19, 12
  br i1 %20, label %21, label %44

21:                                               ; preds = %16
  %22 = getelementptr inbounds i8, ptr %15, i64 32
  %23 = load i32, ptr %22, align 8
  switch i32 %23, label %38 [
    i32 0, label %44
    i32 1, label %24
  ]

24:                                               ; preds = %21
  %25 = getelementptr inbounds i8, ptr %15, i64 16
  %26 = load ptr, ptr %25, align 8
  %27 = load ptr, ptr %26, align 8
  %.not21.i = icmp eq ptr %27, null
  br i1 %.not21.i, label %38, label %28

28:                                               ; preds = %24
  %29 = getelementptr inbounds i8, ptr %27, i64 44
  %30 = load i32, ptr %29, align 4
  %31 = and i32 %30, 15
  %32 = icmp eq i32 %31, 12
  br i1 %32, label %44, label %33

33:                                               ; preds = %28
  %34 = load ptr, ptr %27, align 8
  %35 = getelementptr inbounds i8, ptr %34, i64 16
  %36 = load ptr, ptr %35, align 8
  %37 = tail call noundef zeroext i1 %36(ptr noundef nonnull align 8 dereferenceable(52) %27) #10
  br i1 %37, label %44, label %38

38:                                               ; preds = %33, %24, %21
  %39 = getelementptr inbounds i8, ptr %15, i64 8
  %40 = load ptr, ptr %39, align 8
  %41 = getelementptr inbounds i8, ptr %40, i64 8
  %42 = load ptr, ptr %41, align 8
  %43 = tail call noundef i32 @_ZNK7PhiNode22simple_data_loop_checkEP4Node(ptr noundef nonnull align 8 dereferenceable(88) %15, ptr noundef %42)
  %.not22.i = icmp eq i32 %43, 0
  br i1 %.not22.i, label %44, label %_ZNK10RegionNode23is_possible_unsafe_loopEPK8PhaseGVN.exit

44:                                               ; preds = %38, %33, %28, %21, %16, %11
  %indvars.iv.next.i = add nuw nsw i64 %indvars.iv.i, 1
  %45 = icmp ult i64 %indvars.iv.next.i, %10
  %exitcond.not.i = icmp eq i64 %indvars.iv.next.i, %10
  br i1 %exitcond.not.i, label %_ZNK10RegionNode23is_possible_unsafe_loopEPK8PhaseGVN.exit, label %11, !llvm.loop !10

_ZNK10RegionNode23is_possible_unsafe_loopEPK8PhaseGVN.exit: ; preds = %38, %44
  %.lcssa.i = phi i1 [ %12, %38 ], [ %45, %44 ]
  br i1 %.lcssa.i, label %46, label %_ZNK10RegionNode23is_possible_unsafe_loopEPK8PhaseGVN.exit.thread

46:                                               ; preds = %_ZNK10RegionNode23is_possible_unsafe_loopEPK8PhaseGVN.exit
  %47 = tail call noundef zeroext i1 @_ZNK10RegionNode24is_unreachable_from_rootEPK8PhaseGVN(ptr noundef nonnull align 8 dereferenceable(60) %0, ptr noundef %1)
  br i1 %47, label %48, label %_ZNK10RegionNode23is_possible_unsafe_loopEPK8PhaseGVN.exit.thread

48:                                               ; preds = %46
  store i8 1, ptr %3, align 4
  br label %_ZNK10RegionNode23is_possible_unsafe_loopEPK8PhaseGVN.exit.thread

_ZNK10RegionNode23is_possible_unsafe_loopEPK8PhaseGVN.exit.thread: ; preds = %6, %_ZNK10RegionNode23is_possible_unsafe_loopEPK8PhaseGVN.exit, %46, %2, %48
  %.0 = phi i1 [ true, %48 ], [ true, %2 ], [ false, %46 ], [ false, %_ZNK10RegionNode23is_possible_unsafe_loopEPK8PhaseGVN.exit ], [ false, %6 ]
  ret i1 %.0
}